; ModuleID = 'source-C-CXX/57/214.c'
source_filename = "source-C-CXX/57/214.c"
target datalayout = "e-m:e-p270:32:32-p271:32:32-p272:64:64-i64:64-f80:128-n8:16:32:64-S128"
target triple = "x86_64-pc-linux-gnu"

%struct._IO_FILE = type { i32, i8*, i8*, i8*, i8*, i8*, i8*, i8*, i8*, i8*, i8*, i8*, %struct._IO_marker*, %struct._IO_FILE*, i32, i32, i64, i16, i8, [1 x i8], i8*, i64, %struct._IO_codecvt*, %struct._IO_wide_data*, %struct._IO_FILE*, i8*, i64, i32, [20 x i8] }
%struct._IO_marker = type opaque
%struct._IO_codecvt = type opaque
%struct._IO_wide_data = type opaque

@.str = private unnamed_addr constant [3 x i8] c"%d\00", align 1
@stdin = external local_unnamed_addr global %struct._IO_FILE*, align 8
@str.3 = private unnamed_addr constant [2 x i8] c"1\00", align 1
@str.4 = private unnamed_addr constant [2 x i8] c"0\00", align 1

; Function Attrs: nounwind sspstrong uwtable
define dso_local i32 @main() local_unnamed_addr #0 {
  %1 = alloca i32, align 4
  %2 = alloca [100 x i8], align 16
  %3 = bitcast i32* %1 to i8*
  call void @llvm.lifetime.start.p0i8(i64 4, i8* nonnull %3) #6
  %4 = getelementptr inbounds [100 x i8], [100 x i8]* %2, i64 0, i64 0
  call void @llvm.lifetime.start.p0i8(i64 100, i8* nonnull %4) #6
  %5 = call i32 (i8*, ...) @__isoc99_scanf(i8* getelementptr inbounds ([3 x i8], [3 x i8]* @.str, i64 0, i64 0), i32* nonnull %1)
  %6 = load %struct._IO_FILE*, %struct._IO_FILE** @stdin, align 8, !tbaa !5
  %7 = call i32 @getc(%struct._IO_FILE* %6) #6
  %8 = load i32, i32* %1, align 4, !tbaa !9
  %9 = icmp sgt i32 %8, 0
  br i1 %9, label %10, label %46

10:                                               ; preds = %0, %42
  %11 = phi i32 [ %43, %42 ], [ 0, %0 ]
  %12 = call i32 (i8*, ...) bitcast (i32 (...)* @gets to i32 (i8*, ...)*)(i8* nonnull %4) #6
  %13 = load i8, i8* %4, align 16, !tbaa !11
  %14 = icmp eq i8 %13, 95
  %15 = and i8 %13, -33
  %16 = add i8 %15, -65
  %17 = icmp ult i8 %16, 26
  %18 = or i1 %17, %14
  br i1 %18, label %19, label %39

19:                                               ; preds = %10
  %20 = call i64 @strlen(i8* noundef nonnull %4) #7
  %21 = icmp ugt i64 %20, 1
  br i1 %21, label %22, label %34

22:                                               ; preds = %19, %31
  %23 = phi i64 [ %32, %31 ], [ 1, %19 ]
  %24 = getelementptr inbounds [100 x i8], [100 x i8]* %2, i64 0, i64 %23
  %25 = load i8, i8* %24, align 1, !tbaa !11
  %26 = freeze i8 %25
  %27 = icmp slt i8 %26, 48
  br i1 %27, label %29, label %28

28:                                               ; preds = %22
  switch i8 %26, label %31 [
    i8 94, label %29
    i8 93, label %29
    i8 92, label %29
    i8 91, label %29
    i8 64, label %29
    i8 63, label %29
    i8 62, label %29
    i8 61, label %29
    i8 60, label %29
    i8 59, label %29
    i8 58, label %29
    i8 127, label %29
    i8 126, label %29
    i8 125, label %29
    i8 124, label %29
    i8 123, label %29
    i8 96, label %29
  ]

29:                                               ; preds = %28, %28, %28, %28, %28, %28, %28, %28, %28, %28, %28, %28, %28, %28, %28, %28, %28, %22
  %30 = call i32 @puts(i8* nonnull dereferenceable(1) getelementptr inbounds ([2 x i8], [2 x i8]* @str.4, i64 0, i64 0))
  br label %34

31:                                               ; preds = %28
  %32 = add nuw i64 %23, 1
  %33 = icmp eq i64 %32, %20
  br i1 %33, label %34, label %22, !llvm.loop !12

34:                                               ; preds = %31, %19, %29
  %35 = phi i64 [ %23, %29 ], [ 1, %19 ], [ %20, %31 ]
  %36 = and i64 %35, 4294967295
  %37 = call i64 @strlen(i8* noundef nonnull %4) #7
  %38 = icmp eq i64 %37, %36
  br i1 %38, label %39, label %42

39:                                               ; preds = %10, %34
  %40 = phi i8* [ getelementptr inbounds ([2 x i8], [2 x i8]* @str.3, i64 0, i64 0), %34 ], [ getelementptr inbounds ([2 x i8], [2 x i8]* @str.4, i64 0, i64 0), %10 ]
  %41 = call i32 @puts(i8* nonnull dereferenceable(1) %40)
  br label %42

42:                                               ; preds = %39, %34
  %43 = add nuw nsw i32 %11, 1
  %44 = load i32, i32* %1, align 4, !tbaa !9
  %45 = icmp slt i32 %43, %44
  br i1 %45, label %10, label %46, !llvm.loop !14

46:                                               ; preds = %42, %0
  %47 = load %struct._IO_FILE*, %struct._IO_FILE** @stdin, align 8, !tbaa !5
  %48 = call i32 @getc(%struct._IO_FILE* %47) #6
  %49 = load %struct._IO_FILE*, %struct._IO_FILE** @stdin, align 8, !tbaa !5
  %50 = call i32 @getc(%struct._IO_FILE* %49) #6
  call void @llvm.lifetime.end.p0i8(i64 100, i8* nonnull %4) #6
  call void @llvm.lifetime.end.p0i8(i64 4, i8* nonnull %3) #6
  ret i32 0
}

; Function Attrs: argmemonly mustprogress nofree nosync nounwind willreturn
declare void @llvm.lifetime.start.p0i8(i64 immarg, i8* nocapture) #1

; Function Attrs: nofree nounwind
declare noundef i32 @__isoc99_scanf(i8* nocapture noundef readonly, ...) local_unnamed_addr #2

declare i32 @gets(...) local_unnamed_addr #3

; Function Attrs: argmemonly mustprogress nofree nounwind readonly willreturn
declare i64 @strlen(i8* nocapture) local_unnamed_addr #4

; Function Attrs: argmemonly mustprogress nofree nosync nounwind willreturn
declare void @llvm.lifetime.end.p0i8(i64 immarg, i8* nocapture) #1

; Function Attrs: nofree nounwind
declare noundef i32 @getc(%struct._IO_FILE* nocapture noundef) local_unnamed_addr #2

; Function Attrs: nofree nounwind
declare noundef i32 @puts(i8* nocapture noundef readonly) local_unnamed_addr #5


!llvm.module.flags = !{!0, !1, !2, !3}
!llvm.ident = !{!4}

!0 = !{i32 1, !"wchar_size", i32 4}
!1 = !{i32 7, !"PIC Level", i32 2}
!2 = !{i32 7, !"PIE Level", i32 2}
!3 = !{i32 7, !"uwtable", i32 1}
!4 = !{!"clang version 13.0.0"}
!5 = !{!6, !6, i64 0}
!6 = !{!"any pointer", !7, i64 0}
!7 = !{!"omnipotent char", !8, i64 0}
!8 = !{!"Simple C/C++ TBAA"}
!9 = !{!10, !10, i64 0}
!10 = !{!"int", !7, i64 0}
!11 = !{!7, !7, i64 0}
!12 = distinct !{!12, !13}
!13 = !{!"llvm.loop.mustprogress"}
!14 = distinct !{!14, !13}
